(lp0
c__builtin__
set
p1
((lp2
S'Porto'
p3
aS'Granada'
p4
aS'Sevilha'
p5
aS'Aveiro'
p6
aS'Madrid'
p7
aS'Portimao'
p8
aS'Badajoz'
p9
aS'Barcelona'
p10
aS'Gijon'
p11
aS'Andorra'
p12
aS'Palma'
p13
aS'Bilbau'
p14
aS'Vigo'
p15
aS'Lisboa'
p16
aS'Valencia'
p17
aS'Vilar.Formoso'
p18
aS'Corunha'
p19
aS'Braganca'
p20
atp21
Rp22
ag1
((lp23
(g11
g14
tp24
a(g4
g5
tp25
a(g9
g16
tp26
a(g6
g3
tp27
a(g9
g18
tp28
a(g3
g20
tp29
a(g20
g11
tp30
a(g13
g17
tp31
a(g10
g12
tp32
a(g14
g7
tp33
a(g10
g17
tp34
a(g8
g5
tp35
a(g7
g18
tp36
a(g4
g17
tp37
a(g15
g19
tp38
a(g6
g16
tp39
a(g9
g17
tp40
a(g20
g18
tp41
a(g6
g18
tp42
a(g8
g16
tp43
a(g4
g13
tp44
a(g14
g12
tp45
a(g3
g15
tp46
a(g7
g10
tp47
a(g20
g14
tp48
a(g7
g17
tp49
a(g19
g11
tp50
a(g10
g13
tp51
a(g9
g5
tp52
atp53
Rp54
a(dp55
g17
(F-0.3762881
F39.4699075
tp56
sg3
(F-8.629105299999999
F41.1579438
tp57
sg4
(F-3.5985571
F37.1773363
tp58
sg5
(F-5.9844589
F37.3890924
tp59
sg7
(F-3.7037902
F40.4167754
tp60
sg8
(F-8.5376926
F37.13617
tp61
sg9
(F-6.9706535
F38.8794495
tp62
sg10
(F2.1734035
F41.3850639
tp63
sg12
(F1.521801
F42.506285
tp64
sg11
(F-5.6611195
F43.5322015
tp65
sg14
(F-2.9475662
F43.262629
tp66
sg15
(F-8.7207268
F42.24059889999999
tp67
sg16
(F-9.1393366
F38.7222524
tp68
sg13
(F2.6501603
F39.5696005
tp69
sg18
(F-6.837111999999999
F40.6148457
tp70
sg6
(F-8.6537539
F40.6405055
tp71
sg19
(F-8.4115401
F43.3623436
tp72
sg20
(F-6.756737999999999
F41.8061131
tp73
sa(dp74
g17
(dp75
g3
I1544
sg4
I1540
sg5
I1531
sg7
I1565
sg8
I1574
sg9
I1485
sg10
I1509
sg12
I1526
sg11
I1516
sg14
I1563
sg15
I1539
sg16
I1571
sg13
I1572
sg18
I1581
sg6
I1546
sg19
I1586
sg20
I1570
ssg3
(dp76
g17
I1552
sg4
I1592
sg8
I1555
sg7
I1602
sg5
I1503
sg9
I1504
sg10
I1591
sg12
I1506
sg13
I1539
sg14
I1516
sg15
I1582
sg16
I1532
sg11
I1506
sg18
I1612
sg6
I1504
sg19
I1642
sg20
I1573
ssg4
(dp77
g17
I1562
sg3
I1528
sg8
I1595
sg7
I1553
sg5
I1526
sg9
I1454
sg10
I1504
sg12
I1488
sg13
I1526
sg14
I1512
sg15
I1573
sg16
I1506
sg11
I1498
sg18
I1568
sg6
I1511
sg19
I1584
sg20
I1631
ssg5
(dp78
g17
I1521
sg3
I1557
sg4
I1528
sg8
I1584
sg7
I1541
sg19
I1544
sg9
I1507
sg10
I1463
sg12
I1568
sg13
I1518
sg14
I1555
sg15
I1488
sg16
I1565
sg11
I1478
sg18
I1605
sg6
I1547
sg20
I1556
ssg7
(dp79
g17
I1628
sg3
I1510
sg4
I1552
sg8
I1601
sg18
I1528
sg5
I1592
sg9
I1505
sg10
I1531
sg12
I1598
sg13
I1572
sg14
I1463
sg15
I1513
sg16
I1514
sg11
I1508
sg6
I1567
sg19
I1520
sg20
I1571
ssg8
(dp80
g17
I1553
sg3
I1511
sg4
I1584
sg5
I1546
sg7
I1578
sg19
I1536
sg9
I1555
sg10
I1500
sg12
I1549
sg13
I1511
sg14
I1595
sg15
I1552
sg16
I1524
sg11
I1552
sg18
I1436
sg6
I1520
sg20
I1584
ssg9
(dp81
g17
I1628
sg3
I1508
sg4
I1601
sg5
I1524
sg7
I1479
sg8
I1563
sg19
I1560
sg10
I1531
sg12
I1545
sg13
I1477
sg14
I1593
sg15
I1513
sg16
I1536
sg11
I1545
sg18
I1450
sg6
I1509
sg20
I1542
ssg10
(dp82
g17
I1585
sg3
I1615
sg4
I1587
sg5
I1554
sg7
I1561
sg8
I1625
sg9
I1586
sg12
I1572
sg13
I1551
sg14
I1511
sg15
I1589
sg16
I1567
sg11
I1585
sg18
I1500
sg6
I1568
sg19
I1635
sg20
I1498
ssg12
(dp83
g17
I1536
sg3
I1540
sg4
I1496
sg5
I1505
sg7
I1560
sg8
I1485
sg9
I1585
sg10
I1532
sg19
I1578
sg13
I1538
sg14
I1533
sg15
I1503
sg16
I1563
sg11
I1518
sg18
I1519
sg6
I1515
sg20
I1554
ssg11
(dp84
g3
I1486
sg4
I1518
sg5
I1519
sg7
I1467
sg8
I1546
sg9
I1518
sg10
I1537
sg12
I1594
sg13
I1514
sg14
I1563
sg17
I1578
sg16
I1505
sg15
I1592
sg18
I1606
sg6
I1543
sg19
I1524
sg20
I1585
ssg14
(dp85
g17
I1530
sg3
I1540
sg4
I1521
sg5
I1545
sg7
I1529
sg8
I1499
sg9
I1530
sg10
I1548
sg12
I1523
sg11
I1537
sg20
I1540
sg15
I1497
sg16
I1571
sg13
I1586
sg18
I1579
sg6
I1451
sg19
I1516
ssg15
(dp86
g3
I1521
sg4
I1544
sg5
I1511
sg7
I1491
sg8
I1534
sg9
I1588
sg10
I1554
sg12
I1559
sg11
I1600
sg14
I1573
sg17
I1446
sg16
I1539
sg13
I1559
sg18
I1558
sg6
I1494
sg19
I1551
sg20
I1511
ssg16
(dp87
g17
I1519
sg3
I1563
sg4
I1514
sg5
I1555
sg7
I1555
sg8
I1579
sg9
I1554
sg10
I1609
sg12
I1620
sg11
I1497
sg14
I1597
sg15
I1595
sg13
I1493
sg18
I1492
sg6
I1606
sg19
I1559
sg20
I1539
ssg13
(dp88
g3
I1516
sg4
I1514
sg5
I1610
sg7
I1534
sg8
I1501
sg9
I1532
sg10
I1528
sg12
I1614
sg11
I1538
sg14
I1598
sg17
I1413
sg16
I1539
sg15
I1589
sg18
I1532
sg6
I1569
sg19
I1567
sg20
I1539
ssg18
(dp89
g17
I1560
sg3
I1663
sg4
I1541
sg5
I1553
sg7
I1528
sg8
I1495
sg9
I1528
sg10
I1582
sg12
I1536
sg11
I1528
sg14
I1542
sg15
I1555
sg16
I1552
sg13
I1519
sg6
I1475
sg19
I1533
sg20
I1557
ssg6
(dp90
g17
I1513
sg3
I1572
sg4
I1596
sg8
I1502
sg7
I1543
sg5
I1562
sg9
I1497
sg10
I1500
sg12
I1470
sg13
I1573
sg14
I1553
sg15
I1511
sg16
I1520
sg11
I1461
sg18
I1510
sg19
I1564
sg20
I1528
ssg19
(dp91
g17
I1558
sg3
I1588
sg4
I1495
sg5
I1579
sg7
I1583
sg8
I1536
sg9
I1573
sg10
I1520
sg12
I1520
sg11
I1549
sg14
I1523
sg15
I1562
sg16
I1557
sg13
I1584
sg18
I1534
sg6
I1549
sg20
I1586
ssg20
(dp92
g17
I1561
sg3
I1533
sg4
I1532
sg5
I1492
sg7
I1586
sg8
I1573
sg9
I1590
sg10
I1585
sg12
I1529
sg11
I1520
sg14
I1509
sg15
I1561
sg16
I1476
sg13
I1509
sg18
I1527
sg6
I1558
sg19
I1581
ssa.